target datalayout = "e-m:e-p270:32:32-p271:32:32-p272:64:64-i64:64-i128:128-f80:128-n8:16:32:64-S128"
target triple = "x86_64-pc-linux-gnu"

@.str = private unnamed_addr constant [33 x i8] c"../openssl/crypto/bio/bio_sock.c\00", align 1
@__func__.BIO_socket_ioctl = private unnamed_addr constant [17 x i8] c"BIO_socket_ioctl\00", align 1
@.str.2 = private unnamed_addr constant [22 x i8] c"calling ioctlsocket()\00", align 1

; Function Attrs: nounwind uwtable
define i32 @BIO_socket_ioctl(i32 noundef %0, i64 noundef %1, ptr noundef %2) #0 {
  %4 = alloca i32, align 4
  %5 = alloca i64, align 8
  %6 = alloca ptr, align 8
  %7 = alloca i32, align 4
  store i32 %0, ptr %4, align 4, !tbaa !10
  store i64 %1, ptr %5, align 8, !tbaa !12
  store ptr %2, ptr %6, align 8, !tbaa !18
  call void @llvm.lifetime.start.p0(i64 4, ptr %7) #8
  %8 = load i32, ptr %4, align 4, !tbaa !10
  %9 = load i64, ptr %5, align 8, !tbaa !12
  %10 = load ptr, ptr %6, align 8, !tbaa !18
  %11 = call i32 (i32, i64, ...) @ioctl(i32 noundef %8, i64 noundef %9, ptr noundef %10) #8
  store i32 %11, ptr %7, align 4, !tbaa !10
  %12 = load i32, ptr %7, align 4, !tbaa !10
  %13 = icmp slt i32 %12, 0
  br i1 %13, label %14, label %17

14:                                               ; preds = %3
  call void @ERR_new()
  call void @ERR_set_debug(ptr noundef @.str, i32 noundef 246, ptr noundef @__func__.BIO_socket_ioctl)
  %15 = call ptr @__errno_location() #9
  %16 = load i32, ptr %15, align 4, !tbaa !10
  call void (i32, i32, ptr, ...) @ERR_set_error(i32 noundef 2, i32 noundef %16, ptr noundef @.str.2)
  br label %17

17:                                               ; preds = %14, %3
  %18 = load i32, ptr %7, align 4, !tbaa !10
  call void @llvm.lifetime.end.p0(i64 4, ptr %7) #8
  ret i32 %18
}

; Function Attrs: nounwind uwtable
define i32 @BIO_socket_nbio(i32 noundef %0, i32 noundef %1) #0 {
  %3 = alloca i32, align 4
  %4 = alloca i32, align 4
  %5 = alloca i32, align 4
  %6 = alloca i32, align 4
  store i32 %0, ptr %3, align 4, !tbaa !10
  store i32 %1, ptr %4, align 4, !tbaa !10
  call void @llvm.lifetime.start.p0(i64 4, ptr %5) #8
  store i32 -1, ptr %5, align 4, !tbaa !10
  call void @llvm.lifetime.start.p0(i64 4, ptr %6) #8
  %7 = load i32, ptr %4, align 4, !tbaa !10
  store i32 %7, ptr %6, align 4, !tbaa !10
  %8 = load i32, ptr %4, align 4, !tbaa !10
  store i32 %8, ptr %6, align 4, !tbaa !10
  %9 = load i32, ptr %3, align 4, !tbaa !10
  %10 = call i32 @BIO_socket_ioctl(i32 noundef %9, i64 noundef 21537, ptr noundef %6)
  store i32 %10, ptr %5, align 4, !tbaa !10
  %11 = load i32, ptr %5, align 4, !tbaa !10
  %12 = icmp eq i32 %11, 0
  %13 = zext i1 %12 to i32
  call void @llvm.lifetime.end.p0(i64 4, ptr %6) #8
  call void @llvm.lifetime.end.p0(i64 4, ptr %5) #8
  ret i32 %13
}