; Function Attrs: nounwind uwtable
define range(i32 0, 2) i32 @BIO_socket_nbio(i32 noundef %0, i32 noundef %1) local_unnamed_addr #0 {
  %3 = alloca i32, align 4
  call void @llvm.lifetime.start.p0(i64 4, ptr nonnull %3) #9
  store i32 %1, ptr %3, align 4, !tbaa !11
  %4 = call i32 (i32, i64, ...) @ioctl(i32 noundef %0, i64 noundef 21537, ptr noundef nonnull %3) #9
  %5 = icmp slt i32 %4, 0
  br i1 %5, label %6, label %BIO_socket_ioctl.exit

6:                                                ; preds = %2
  call void @ERR_new() #9
  call void @ERR_set_debug(ptr noundef nonnull @.str, i32 noundef 246, ptr noundef nonnull @__func__.BIO_socket_ioctl) #9
  %7 = tail call ptr @__errno_location() #10
  %8 = load i32, ptr %7, align 4, !tbaa !11
  call void (i32, i32, ptr, ...) @ERR_set_error(i32 noundef 2, i32 noundef %8, ptr noundef nonnull @.str.2) #9
  br label %BIO_socket_ioctl.exit

BIO_socket_ioctl.exit:                            ; preds = %2, %6
  %9 = icmp eq i32 %4, 0
  %10 = zext i1 %9 to i32
  call void @llvm.lifetime.end.p0(i64 4, ptr nonnull %3) #9
  ret i32 %10
}